target datalayout = "e-m:e-p270:32:32-p271:32:32-p272:64:64-i64:64-i128:128-f80:128-n8:16:32:64-S128"
target triple = "x86_64-pc-linux-gnu"

@proto_register_mint.ett = internal global [5 x ptr] [ptr @ett_mint_ethshim, ptr @ett_mint, ptr @ett_mint_header, ptr @ett_mint_ctrl, ptr @ett_mint_data], align 16
@.str.66 = private unnamed_addr constant [36 x i8] c"Media Independent Network Transport\00", align 1
@.str.67 = private unnamed_addr constant [5 x i8] c"MINT\00", align 1
@.str.68 = private unnamed_addr constant [5 x i8] c"mint\00", align 1
@proto_mint = internal global i32 0, align 4
@.str.69 = private unnamed_addr constant [41 x i8] c"Media Independent Network Transport Data\00", align 1
@.str.70 = private unnamed_addr constant [12 x i8] c"MINT (Data)\00", align 1
@.str.71 = private unnamed_addr constant [10 x i8] c"mint_data\00", align 1
@.str.72 = private unnamed_addr constant [13 x i8] c"mint_control\00", align 1
@mint_control_handle = internal global ptr null, align 8
@mint_data_handle = internal global ptr null, align 8
@.str.73 = private unnamed_addr constant [9 x i8] c"mint_eth\00", align 1
@mint_eth_handle = internal global ptr null, align 8

; Function Attrs: null_pointer_is_valid sspstrong uwtable
define hidden void @proto_register_mint() #0 {
  %1 = alloca i32, align 4
  %2 = call i32 @proto_register_protocol(ptr noundef @.str.66, ptr noundef @.str.67, ptr noundef @.str.68)
  store i32 %2, ptr @proto_mint, align 4
  call void @llvm.lifetime.start.p0(i64 4, ptr %1) #6
  %3 = load i32, ptr @proto_mint, align 4
  %4 = call i32 @proto_register_protocol_in_name_only(ptr noundef @.str.69, ptr noundef @.str.70, ptr noundef @.str.71, i32 noundef %3, i32 noundef 1)
  store i32 %4, ptr %1, align 4
  %5 = load i32, ptr @proto_mint, align 4
  call void @proto_register_field_array(i32 noundef %5, ptr noundef @proto_register_mint.hf, i32 noundef 39)
  call void @proto_register_subtree_array(ptr noundef @proto_register_mint.ett, i32 noundef 5)
  %6 = load i32, ptr @proto_mint, align 4
  %7 = call ptr @register_dissector(ptr noundef @.str.72, ptr noundef @dissect_mint_control_static, i32 noundef %6)
  store ptr %7, ptr @mint_control_handle, align 8
  %8 = load i32, ptr %1, align 4
  %9 = call ptr @register_dissector(ptr noundef @.str.71, ptr noundef @dissect_mint_data_static, i32 noundef %8)
  store ptr %9, ptr @mint_data_handle, align 8
  %10 = load i32, ptr @proto_mint, align 4
  %11 = call ptr @register_dissector(ptr noundef @.str.73, ptr noundef @dissect_mint_ethshim_static, i32 noundef %10)
  store ptr %11, ptr @mint_eth_handle, align 8
  call void @llvm.lifetime.end.p0(i64 4, ptr %1) #6
  ret void
}