; Function Attrs: null_pointer_is_valid sspstrong uwtable
define hidden void @proto_register_mint() local_unnamed_addr #0 {
  %1 = tail call i32 @proto_register_protocol(ptr noundef nonnull @.str.66, ptr noundef nonnull @.str.67, ptr noundef nonnull @.str.68)
  store i32 %1, ptr @proto_mint, align 4
  %2 = tail call i32 @proto_register_protocol_in_name_only(ptr noundef nonnull @.str.69, ptr noundef nonnull @.str.70, ptr noundef nonnull @.str.71, i32 noundef %1, i32 noundef 1)
  %3 = load i32, ptr @proto_mint, align 4
  tail call void @proto_register_field_array(i32 noundef %3, ptr noundef nonnull @proto_register_mint.hf, i32 noundef 39)
  tail call void @proto_register_subtree_array(ptr noundef nonnull @proto_register_mint.ett, i32 noundef 5)
  %4 = load i32, ptr @proto_mint, align 4
  %5 = tail call ptr @register_dissector(ptr noundef nonnull @.str.72, ptr noundef nonnull @dissect_mint_control_static, i32 noundef %4)
  store ptr %5, ptr @mint_control_handle, align 8
  %6 = tail call ptr @register_dissector(ptr noundef nonnull @.str.71, ptr noundef nonnull @dissect_mint_data_static, i32 noundef %2)
  store ptr %6, ptr @mint_data_handle, align 8
  %7 = load i32, ptr @proto_mint, align 4
  %8 = tail call ptr @register_dissector(ptr noundef nonnull @.str.73, ptr noundef nonnull @dissect_mint_ethshim_static, i32 noundef %7)
  store ptr %8, ptr @mint_eth_handle, align 8
  ret void
}